target datalayout = "e-m:e-p270:32:32-p271:32:32-p272:64:64-i64:64-i128:128-f80:128-n8:16:32:64-S128"
target triple = "x86_64-pc-linux-gnu"

%struct.lv_area_t = type { i32, i32, i32, i32 }
%struct._lv_obj_t = type { ptr, ptr, ptr, ptr, ptr, %struct.lv_area_t, i32, i16, i16 }

; Function Attrs: inlinehint nounwind uwtable
define internal void @lv_area_copy(ptr noundef %0, ptr noundef %1) #3 {
  %3 = alloca ptr, align 8
  %4 = alloca ptr, align 8
  store ptr %0, ptr %3, align 8, !tbaa !3
  store ptr %1, ptr %4, align 8, !tbaa !3
  %5 = load ptr, ptr %4, align 8, !tbaa !3
  %6 = getelementptr inbounds nuw %struct.lv_area_t, ptr %5, i32 0, i32 0
  %7 = load i32, ptr %6, align 4, !tbaa !33
  %8 = load ptr, ptr %3, align 8, !tbaa !3
  %9 = getelementptr inbounds nuw %struct.lv_area_t, ptr %8, i32 0, i32 0
  store i32 %7, ptr %9, align 4, !tbaa !33
  %10 = load ptr, ptr %4, align 8, !tbaa !3
  %11 = getelementptr inbounds nuw %struct.lv_area_t, ptr %10, i32 0, i32 1
  %12 = load i32, ptr %11, align 4, !tbaa !34
  %13 = load ptr, ptr %3, align 8, !tbaa !3
  %14 = getelementptr inbounds nuw %struct.lv_area_t, ptr %13, i32 0, i32 1
  store i32 %12, ptr %14, align 4, !tbaa !34
  %15 = load ptr, ptr %4, align 8, !tbaa !3
  %16 = getelementptr inbounds nuw %struct.lv_area_t, ptr %15, i32 0, i32 2
  %17 = load i32, ptr %16, align 4, !tbaa !35
  %18 = load ptr, ptr %3, align 8, !tbaa !3
  %19 = getelementptr inbounds nuw %struct.lv_area_t, ptr %18, i32 0, i32 2
  store i32 %17, ptr %19, align 4, !tbaa !35
  %20 = load ptr, ptr %4, align 8, !tbaa !3
  %21 = getelementptr inbounds nuw %struct.lv_area_t, ptr %20, i32 0, i32 3
  %22 = load i32, ptr %21, align 4, !tbaa !36
  %23 = load ptr, ptr %3, align 8, !tbaa !3
  %24 = getelementptr inbounds nuw %struct.lv_area_t, ptr %23, i32 0, i32 3
  store i32 %22, ptr %24, align 4, !tbaa !36
  ret void
}

; Function Attrs: nounwind uwtable
define zeroext i1 @lv_obj_is_visible(ptr noundef %0) #0 {
  %2 = alloca ptr, align 8
  %3 = alloca %struct.lv_area_t, align 4
  %4 = alloca i32, align 4
  store ptr %0, ptr %2, align 8, !tbaa !3
  br label %5

5:                                                ; preds = %1
  br label %6

6:                                                ; preds = %5
  call void @llvm.lifetime.start.p0(i64 16, ptr %3) #5
  call void @llvm.lifetime.start.p0(i64 4, ptr %4) #5
  %7 = load ptr, ptr %2, align 8, !tbaa !3
  %8 = call i32 @lv_obj_get_ext_draw_size(ptr noundef %7)
  store i32 %8, ptr %4, align 4, !tbaa !7
  %9 = load ptr, ptr %2, align 8, !tbaa !3
  %10 = getelementptr inbounds nuw %struct._lv_obj_t, ptr %9, i32 0, i32 5
  call void @lv_area_copy(ptr noundef %3, ptr noundef %10)
  %11 = load i32, ptr %4, align 4, !tbaa !7
  %12 = getelementptr inbounds nuw %struct.lv_area_t, ptr %3, i32 0, i32 0
  %13 = load i32, ptr %12, align 4, !tbaa !33
  %14 = sub nsw i32 %13, %11
  store i32 %14, ptr %12, align 4, !tbaa !33
  %15 = load i32, ptr %4, align 4, !tbaa !7
  %16 = getelementptr inbounds nuw %struct.lv_area_t, ptr %3, i32 0, i32 1
  %17 = load i32, ptr %16, align 4, !tbaa !34
  %18 = sub nsw i32 %17, %15
  store i32 %18, ptr %16, align 4, !tbaa !34
  %19 = load i32, ptr %4, align 4, !tbaa !7
  %20 = getelementptr inbounds nuw %struct.lv_area_t, ptr %3, i32 0, i32 2
  %21 = load i32, ptr %20, align 4, !tbaa !35
  %22 = add nsw i32 %21, %19
  store i32 %22, ptr %20, align 4, !tbaa !35
  %23 = load i32, ptr %4, align 4, !tbaa !7
  %24 = getelementptr inbounds nuw %struct.lv_area_t, ptr %3, i32 0, i32 3
  %25 = load i32, ptr %24, align 4, !tbaa !36
  %26 = add nsw i32 %25, %23
  store i32 %26, ptr %24, align 4, !tbaa !36
  %27 = load ptr, ptr %2, align 8, !tbaa !3
  %28 = call zeroext i1 @lv_obj_area_is_visible(ptr noundef %27, ptr noundef %3)
  call void @llvm.lifetime.end.p0(i64 4, ptr %4) #5
  call void @llvm.lifetime.end.p0(i64 16, ptr %3) #5
  ret i1 %28
}